target datalayout = "e-m:e-p270:32:32-p271:32:32-p272:64:64-i64:64-i128:128-f80:128-n8:16:32:64-S128"
target triple = "x86_64-pc-linux-gnu"

%struct.bz_stream = type { ptr, i32, i32, i32, ptr, i32, i32, i32, ptr, ptr, ptr, ptr }
%struct.DState = type { ptr, i32, i8, i32, i8, i32, i32, i32, i32, i32, i8, i32, i32, i32, i32, i32, [256 x i32], i32, [257 x i32], [257 x i32], ptr, ptr, ptr, i32, i32, i32, i32, i32, [256 x i8], [16 x i8], [256 x i8], [4096 x i8], [16 x i32], [18002 x i8], [18002 x i8], [6 x [258 x i8]], [6 x [258 x i32]], [6 x [258 x i32]], [6 x [258 x i32]], [6 x i32], i32, i32, i32, i32, i32, i32, i32, i32, i32, i32, i32, i32, i32, i32, i32, i32, i32, i32, i32, i32, i32, ptr, ptr, ptr }

; Function Attrs: nounwind uwtable
define internal i32 @bz_config_ok() #0 {
  ret i32 1
}

; Function Attrs: nounwind uwtable
define i32 @BZ2_bzDecompressEnd(ptr noundef %0) #0 {
  %2 = alloca i32, align 4
  %3 = alloca ptr, align 8
  %4 = alloca ptr, align 8
  store ptr %0, ptr %3, align 8
  %5 = load ptr, ptr %3, align 8
  %6 = icmp eq ptr %5, null
  br i1 %6, label %7, label %8

7:                                                ; preds = %1
  store i32 -2, ptr %2, align 4
  br label %79

8:                                                ; preds = %1
  %9 = load ptr, ptr %3, align 8
  %10 = getelementptr inbounds %struct.bz_stream, ptr %9, i32 0, i32 8
  %11 = load ptr, ptr %10, align 8
  store ptr %11, ptr %4, align 8
  %12 = load ptr, ptr %4, align 8
  %13 = icmp eq ptr %12, null
  br i1 %13, label %14, label %15

14:                                               ; preds = %8
  store i32 -2, ptr %2, align 4
  br label %79

15:                                               ; preds = %8
  %16 = load ptr, ptr %4, align 8
  %17 = getelementptr inbounds %struct.DState, ptr %16, i32 0, i32 0
  %18 = load ptr, ptr %17, align 8
  %19 = load ptr, ptr %3, align 8
  %20 = icmp ne ptr %18, %19
  br i1 %20, label %21, label %22

21:                                               ; preds = %15
  store i32 -2, ptr %2, align 4
  br label %79

22:                                               ; preds = %15
  %23 = load ptr, ptr %4, align 8
  %24 = getelementptr inbounds %struct.DState, ptr %23, i32 0, i32 20
  %25 = load ptr, ptr %24, align 8
  %26 = icmp ne ptr %25, null
  br i1 %26, label %27, label %37

27:                                               ; preds = %22
  %28 = load ptr, ptr %3, align 8
  %29 = getelementptr inbounds %struct.bz_stream, ptr %28, i32 0, i32 10
  %30 = load ptr, ptr %29, align 8
  %31 = load ptr, ptr %3, align 8
  %32 = getelementptr inbounds %struct.bz_stream, ptr %31, i32 0, i32 11
  %33 = load ptr, ptr %32, align 8
  %34 = load ptr, ptr %4, align 8
  %35 = getelementptr inbounds %struct.DState, ptr %34, i32 0, i32 20
  %36 = load ptr, ptr %35, align 8
  call void %30(ptr noundef %33, ptr noundef %36)
  br label %37

37:                                               ; preds = %27, %22
  %38 = load ptr, ptr %4, align 8
  %39 = getelementptr inbounds %struct.DState, ptr %38, i32 0, i32 21
  %40 = load ptr, ptr %39, align 8
  %41 = icmp ne ptr %40, null
  br i1 %41, label %42, label %52

42:                                               ; preds = %37
  %43 = load ptr, ptr %3, align 8
  %44 = getelementptr inbounds %struct.bz_stream, ptr %43, i32 0, i32 10
  %45 = load ptr, ptr %44, align 8
  %46 = load ptr, ptr %3, align 8
  %47 = getelementptr inbounds %struct.bz_stream, ptr %46, i32 0, i32 11
  %48 = load ptr, ptr %47, align 8
  %49 = load ptr, ptr %4, align 8
  %50 = getelementptr inbounds %struct.DState, ptr %49, i32 0, i32 21
  %51 = load ptr, ptr %50, align 8
  call void %45(ptr noundef %48, ptr noundef %51)
  br label %52

52:                                               ; preds = %42, %37
  %53 = load ptr, ptr %4, align 8
  %54 = getelementptr inbounds %struct.DState, ptr %53, i32 0, i32 22
  %55 = load ptr, ptr %54, align 8
  %56 = icmp ne ptr %55, null
  br i1 %56, label %57, label %67

57:                                               ; preds = %52
  %58 = load ptr, ptr %3, align 8
  %59 = getelementptr inbounds %struct.bz_stream, ptr %58, i32 0, i32 10
  %60 = load ptr, ptr %59, align 8
  %61 = load ptr, ptr %3, align 8
  %62 = getelementptr inbounds %struct.bz_stream, ptr %61, i32 0, i32 11
  %63 = load ptr, ptr %62, align 8
  %64 = load ptr, ptr %4, align 8
  %65 = getelementptr inbounds %struct.DState, ptr %64, i32 0, i32 22
  %66 = load ptr, ptr %65, align 8
  call void %60(ptr noundef %63, ptr noundef %66)
  br label %67

67:                                               ; preds = %57, %52
  %68 = load ptr, ptr %3, align 8
  %69 = getelementptr inbounds %struct.bz_stream, ptr %68, i32 0, i32 10
  %70 = load ptr, ptr %69, align 8
  %71 = load ptr, ptr %3, align 8
  %72 = getelementptr inbounds %struct.bz_stream, ptr %71, i32 0, i32 11
  %73 = load ptr, ptr %72, align 8
  %74 = load ptr, ptr %3, align 8
  %75 = getelementptr inbounds %struct.bz_stream, ptr %74, i32 0, i32 8
  %76 = load ptr, ptr %75, align 8
  call void %70(ptr noundef %73, ptr noundef %76)
  %77 = load ptr, ptr %3, align 8
  %78 = getelementptr inbounds %struct.bz_stream, ptr %77, i32 0, i32 8
  store ptr null, ptr %78, align 8
  store i32 0, ptr %2, align 4
  br label %79

79:                                               ; preds = %67, %21, %14, %7
  %80 = load i32, ptr %2, align 4
  ret i32 %80
}

; Function Attrs: nounwind uwtable
define i32 @BZ2_bzDecompressInit(ptr noundef %0, i32 noundef %1, i32 noundef %2) #0 {
  %4 = alloca i32, align 4
  %5 = alloca ptr, align 8
  %6 = alloca i32, align 4
  %7 = alloca i32, align 4
  %8 = alloca ptr, align 8
  store ptr %0, ptr %5, align 8
  store i32 %1, ptr %6, align 4
  store i32 %2, ptr %7, align 4
  %9 = call i32 @bz_config_ok()
  %10 = icmp ne i32 %9, 0
  br i1 %10, label %12, label %11

11:                                               ; preds = %3
  store i32 -9, ptr %4, align 4
  br label %95

12:                                               ; preds = %3
  %13 = load ptr, ptr %5, align 8
  %14 = icmp eq ptr %13, null
  br i1 %14, label %15, label %16

15:                                               ; preds = %12
  store i32 -2, ptr %4, align 4
  br label %95

16:                                               ; preds = %12
  %17 = load i32, ptr %7, align 4
  %18 = icmp ne i32 %17, 0
  br i1 %18, label %19, label %23

19:                                               ; preds = %16
  %20 = load i32, ptr %7, align 4
  %21 = icmp ne i32 %20, 1
  br i1 %21, label %22, label %23

22:                                               ; preds = %19
  store i32 -2, ptr %4, align 4
  br label %95

23:                                               ; preds = %19, %16
  %24 = load i32, ptr %6, align 4
  %25 = icmp slt i32 %24, 0
  br i1 %25, label %29, label %26

26:                                               ; preds = %23
  %27 = load i32, ptr %6, align 4
  %28 = icmp sgt i32 %27, 4
  br i1 %28, label %29, label %30

29:                                               ; preds = %26, %23
  store i32 -2, ptr %4, align 4
  br label %95

30:                                               ; preds = %26
  %31 = load ptr, ptr %5, align 8
  %32 = getelementptr inbounds %struct.bz_stream, ptr %31, i32 0, i32 9
  %33 = load ptr, ptr %32, align 8
  %34 = icmp eq ptr %33, null
  br i1 %34, label %35, label %38

35:                                               ; preds = %30
  %36 = load ptr, ptr %5, align 8
  %37 = getelementptr inbounds %struct.bz_stream, ptr %36, i32 0, i32 9
  store ptr @default_bzalloc, ptr %37, align 8
  br label %38

38:                                               ; preds = %35, %30
  %39 = load ptr, ptr %5, align 8
  %40 = getelementptr inbounds %struct.bz_stream, ptr %39, i32 0, i32 10
  %41 = load ptr, ptr %40, align 8
  %42 = icmp eq ptr %41, null
  br i1 %42, label %43, label %46

43:                                               ; preds = %38
  %44 = load ptr, ptr %5, align 8
  %45 = getelementptr inbounds %struct.bz_stream, ptr %44, i32 0, i32 10
  store ptr @default_bzfree, ptr %45, align 8
  br label %46

46:                                               ; preds = %43, %38
  %47 = load ptr, ptr %5, align 8
  %48 = getelementptr inbounds %struct.bz_stream, ptr %47, i32 0, i32 9
  %49 = load ptr, ptr %48, align 8
  %50 = load ptr, ptr %5, align 8
  %51 = getelementptr inbounds %struct.bz_stream, ptr %50, i32 0, i32 11
  %52 = load ptr, ptr %51, align 8
  %53 = call ptr %49(ptr noundef %52, i32 noundef 64144, i32 noundef 1)
  store ptr %53, ptr %8, align 8
  %54 = load ptr, ptr %8, align 8
  %55 = icmp eq ptr %54, null
  br i1 %55, label %56, label %57

56:                                               ; preds = %46
  store i32 -3, ptr %4, align 4
  br label %95

57:                                               ; preds = %46
  %58 = load ptr, ptr %5, align 8
  %59 = load ptr, ptr %8, align 8
  %60 = getelementptr inbounds %struct.DState, ptr %59, i32 0, i32 0
  store ptr %58, ptr %60, align 8
  %61 = load ptr, ptr %8, align 8
  %62 = load ptr, ptr %5, align 8
  %63 = getelementptr inbounds %struct.bz_stream, ptr %62, i32 0, i32 8
  store ptr %61, ptr %63, align 8
  %64 = load ptr, ptr %8, align 8
  %65 = getelementptr inbounds %struct.DState, ptr %64, i32 0, i32 1
  store i32 10, ptr %65, align 8
  %66 = load ptr, ptr %8, align 8
  %67 = getelementptr inbounds %struct.DState, ptr %66, i32 0, i32 8
  store i32 0, ptr %67, align 4
  %68 = load ptr, ptr %8, align 8
  %69 = getelementptr inbounds %struct.DState, ptr %68, i32 0, i32 7
  store i32 0, ptr %69, align 8
  %70 = load ptr, ptr %8, align 8
  %71 = getelementptr inbounds %struct.DState, ptr %70, i32 0, i32 26
  store i32 0, ptr %71, align 4
  %72 = load ptr, ptr %5, align 8
  %73 = getelementptr inbounds %struct.bz_stream, ptr %72, i32 0, i32 2
  store i32 0, ptr %73, align 4
  %74 = load ptr, ptr %5, align 8
  %75 = getelementptr inbounds %struct.bz_stream, ptr %74, i32 0, i32 3
  store i32 0, ptr %75, align 8
  %76 = load ptr, ptr %5, align 8
  %77 = getelementptr inbounds %struct.bz_stream, ptr %76, i32 0, i32 6
  store i32 0, ptr %77, align 4
  %78 = load ptr, ptr %5, align 8
  %79 = getelementptr inbounds %struct.bz_stream, ptr %78, i32 0, i32 7
  store i32 0, ptr %79, align 8
  %80 = load i32, ptr %7, align 4
  %81 = trunc i32 %80 to i8
  %82 = load ptr, ptr %8, align 8
  %83 = getelementptr inbounds %struct.DState, ptr %82, i32 0, i32 10
  store i8 %81, ptr %83, align 4
  %84 = load ptr, ptr %8, align 8
  %85 = getelementptr inbounds %struct.DState, ptr %84, i32 0, i32 22
  store ptr null, ptr %85, align 8
  %86 = load ptr, ptr %8, align 8
  %87 = getelementptr inbounds %struct.DState, ptr %86, i32 0, i32 21
  store ptr null, ptr %87, align 8
  %88 = load ptr, ptr %8, align 8
  %89 = getelementptr inbounds %struct.DState, ptr %88, i32 0, i32 20
  store ptr null, ptr %89, align 8
  %90 = load ptr, ptr %8, align 8
  %91 = getelementptr inbounds %struct.DState, ptr %90, i32 0, i32 11
  store i32 0, ptr %91, align 8
  %92 = load i32, ptr %6, align 4
  %93 = load ptr, ptr %8, align 8
  %94 = getelementptr inbounds %struct.DState, ptr %93, i32 0, i32 12
  store i32 %92, ptr %94, align 4
  store i32 0, ptr %4, align 4
  br label %95

95:                                               ; preds = %57, %56, %29, %22, %15, %11
  %96 = load i32, ptr %4, align 4
  ret i32 %96
}

; Function Attrs: nounwind uwtable
define i32 @BZ2_bzBuffToBuffDecompress(ptr noundef %0, ptr noundef %1, ptr noundef %2, i32 noundef %3, i32 noundef %4, i32 noundef %5) #0 {
  %7 = alloca i32, align 4
  %8 = alloca ptr, align 8
  %9 = alloca ptr, align 8
  %10 = alloca ptr, align 8
  %11 = alloca i32, align 4
  %12 = alloca i32, align 4
  %13 = alloca i32, align 4
  %14 = alloca %struct.bz_stream, align 8
  %15 = alloca i32, align 4
  store ptr %0, ptr %8, align 8
  store ptr %1, ptr %9, align 8
  store ptr %2, ptr %10, align 8
  store i32 %3, ptr %11, align 4
  store i32 %4, ptr %12, align 4
  store i32 %5, ptr %13, align 4
  %16 = load ptr, ptr %8, align 8
  %17 = icmp eq ptr %16, null
  br i1 %17, label %36, label %18

18:                                               ; preds = %6
  %19 = load ptr, ptr %9, align 8
  %20 = icmp eq ptr %19, null
  br i1 %20, label %36, label %21

21:                                               ; preds = %18
  %22 = load ptr, ptr %10, align 8
  %23 = icmp eq ptr %22, null
  br i1 %23, label %36, label %24

24:                                               ; preds = %21
  %25 = load i32, ptr %12, align 4
  %26 = icmp ne i32 %25, 0
  br i1 %26, label %27, label %30

27:                                               ; preds = %24
  %28 = load i32, ptr %12, align 4
  %29 = icmp ne i32 %28, 1
  br i1 %29, label %36, label %30

30:                                               ; preds = %27, %24
  %31 = load i32, ptr %13, align 4
  %32 = icmp slt i32 %31, 0
  br i1 %32, label %36, label %33

33:                                               ; preds = %30
  %34 = load i32, ptr %13, align 4
  %35 = icmp sgt i32 %34, 4
  br i1 %35, label %36, label %37

36:                                               ; preds = %33, %30, %27, %21, %18, %6
  store i32 -2, ptr %7, align 4
  br label %84

37:                                               ; preds = %33
  %38 = getelementptr inbounds %struct.bz_stream, ptr %14, i32 0, i32 9
  store ptr null, ptr %38, align 8
  %39 = getelementptr inbounds %struct.bz_stream, ptr %14, i32 0, i32 10
  store ptr null, ptr %39, align 8
  %40 = getelementptr inbounds %struct.bz_stream, ptr %14, i32 0, i32 11
  store ptr null, ptr %40, align 8
  %41 = load i32, ptr %13, align 4
  %42 = load i32, ptr %12, align 4
  %43 = call i32 @BZ2_bzDecompressInit(ptr noundef %14, i32 noundef %41, i32 noundef %42)
  store i32 %43, ptr %15, align 4
  %44 = load i32, ptr %15, align 4
  %45 = icmp ne i32 %44, 0
  br i1 %45, label %46, label %48

46:                                               ; preds = %37
  %47 = load i32, ptr %15, align 4
  store i32 %47, ptr %7, align 4
  br label %84

48:                                               ; preds = %37
  %49 = load ptr, ptr %10, align 8
  %50 = getelementptr inbounds %struct.bz_stream, ptr %14, i32 0, i32 0
  store ptr %49, ptr %50, align 8
  %51 = load ptr, ptr %8, align 8
  %52 = getelementptr inbounds %struct.bz_stream, ptr %14, i32 0, i32 4
  store ptr %51, ptr %52, align 8
  %53 = load i32, ptr %11, align 4
  %54 = getelementptr inbounds %struct.bz_stream, ptr %14, i32 0, i32 1
  store i32 %53, ptr %54, align 8
  %55 = load ptr, ptr %9, align 8
  %56 = load i32, ptr %55, align 4
  %57 = getelementptr inbounds %struct.bz_stream, ptr %14, i32 0, i32 5
  store i32 %56, ptr %57, align 8
  %58 = call i32 @BZ2_bzDecompress(ptr noundef %14)
  store i32 %58, ptr %15, align 4
  %59 = load i32, ptr %15, align 4
  %60 = icmp eq i32 %59, 0
  br i1 %60, label %61, label %62

61:                                               ; preds = %48
  br label %73

62:                                               ; preds = %48
  %63 = load i32, ptr %15, align 4
  %64 = icmp ne i32 %63, 4
  br i1 %64, label %65, label %66

65:                                               ; preds = %62
  br label %81

66:                                               ; preds = %62
  %67 = getelementptr inbounds %struct.bz_stream, ptr %14, i32 0, i32 5
  %68 = load i32, ptr %67, align 8
  %69 = load ptr, ptr %9, align 8
  %70 = load i32, ptr %69, align 4
  %71 = sub i32 %70, %68
  store i32 %71, ptr %69, align 4
  %72 = call i32 @BZ2_bzDecompressEnd(ptr noundef %14)
  store i32 0, ptr %7, align 4
  br label %84

73:                                               ; preds = %61
  %74 = getelementptr inbounds %struct.bz_stream, ptr %14, i32 0, i32 5
  %75 = load i32, ptr %74, align 8
  %76 = icmp ugt i32 %75, 0
  br i1 %76, label %77, label %79

77:                                               ; preds = %73
  %78 = call i32 @BZ2_bzDecompressEnd(ptr noundef %14)
  store i32 -7, ptr %7, align 4
  br label %84

79:                                               ; preds = %73
  %80 = call i32 @BZ2_bzDecompressEnd(ptr noundef %14)
  store i32 -8, ptr %7, align 4
  br label %84

81:                                               ; preds = %65
  %82 = call i32 @BZ2_bzDecompressEnd(ptr noundef %14)
  %83 = load i32, ptr %15, align 4
  store i32 %83, ptr %7, align 4
  br label %84

84:                                               ; preds = %81, %79, %77, %66, %46, %36
  %85 = load i32, ptr %7, align 4
  ret i32 %85
}