; Function Attrs: nounwind uwtable
define range(i32 5, 4) i32 @BZ2_bzBuffToBuffDecompress(ptr noundef %0, ptr noundef %1, ptr noundef %2, i32 noundef %3, i32 noundef %4, i32 noundef %5) local_unnamed_addr #4 {
  %7 = alloca %struct.bz_stream, align 8
  %8 = icmp eq ptr %0, null
  %9 = icmp eq ptr %1, null
  %or.cond = or i1 %8, %9
  %10 = icmp eq ptr %2, null
  %or.cond3 = or i1 %or.cond, %10
  br i1 %or.cond3, label %BZ2_bzDecompressInit.exit, label %11

11:                                               ; preds = %6
  %or.cond5 = icmp ugt i32 %4, 1
  %12 = icmp ugt i32 %5, 4
  %or.cond9 = or i1 %or.cond5, %12
  br i1 %or.cond9, label %BZ2_bzDecompressInit.exit, label %13

13:                                               ; preds = %11
  %14 = getelementptr inbounds nuw i8, ptr %7, i64 56
  %15 = getelementptr inbounds nuw i8, ptr %7, i64 64
  %16 = getelementptr inbounds nuw i8, ptr %7, i64 72
  store i64 0, ptr %16, align 8
  store ptr @default_bzalloc, ptr %14, align 8
  store ptr @default_bzfree, ptr %15, align 8
  %17 = tail call noalias noundef dereferenceable_or_null(64144) ptr @malloc(i64 noundef 64144) #23
  %18 = icmp eq ptr %17, null
  br i1 %18, label %BZ2_bzDecompressInit.exit, label %19

19:                                               ; preds = %13
  store ptr %7, ptr %17, align 8
  %20 = getelementptr inbounds nuw i8, ptr %7, i64 48
  store ptr %17, ptr %20, align 8
  %21 = getelementptr inbounds nuw i8, ptr %17, i64 8
  store i32 10, ptr %21, align 8
  %22 = getelementptr inbounds nuw i8, ptr %17, i64 36
  store i32 0, ptr %22, align 4
  %23 = getelementptr inbounds nuw i8, ptr %17, i64 32
  store i32 0, ptr %23, align 8
  %24 = getelementptr inbounds nuw i8, ptr %17, i64 3188
  store i32 0, ptr %24, align 4
  %25 = getelementptr inbounds nuw i8, ptr %7, i64 12
  store i32 0, ptr %25, align 4
  %26 = getelementptr inbounds nuw i8, ptr %7, i64 16
  store i32 0, ptr %26, align 8
  %27 = getelementptr inbounds nuw i8, ptr %7, i64 36
  store i32 0, ptr %27, align 4
  %28 = getelementptr inbounds nuw i8, ptr %7, i64 40
  store i32 0, ptr %28, align 8
  %29 = trunc nuw i32 %4 to i8
  %30 = getelementptr inbounds nuw i8, ptr %17, i64 44
  store i8 %29, ptr %30, align 4
  %31 = getelementptr inbounds nuw i8, ptr %17, i64 3152
  %32 = getelementptr inbounds nuw i8, ptr %17, i64 48
  store i32 0, ptr %32, align 8
  %33 = getelementptr inbounds nuw i8, ptr %17, i64 52
  call void @llvm.memset.p0.i64(ptr noundef nonnull align 8 dereferenceable(24) %31, i8 0, i64 24, i1 false)
  store i32 %5, ptr %33, align 4
  store ptr %2, ptr %7, align 8
  %34 = getelementptr inbounds nuw i8, ptr %7, i64 24
  store ptr %0, ptr %34, align 8
  %35 = getelementptr inbounds nuw i8, ptr %7, i64 8
  store i32 %3, ptr %35, align 8
  %36 = load i32, ptr %1, align 4
  %37 = getelementptr inbounds nuw i8, ptr %7, i64 32
  store i32 %36, ptr %37, align 8
  %38 = call i32 @BZ2_bzDecompress(ptr noundef nonnull %7)
  switch i32 %38, label %97 [
    i32 0, label %69
    i32 4, label %39
  ]

39:                                               ; preds = %19
  %40 = load i32, ptr %37, align 8
  %41 = load i32, ptr %1, align 4
  %42 = sub i32 %41, %40
  store i32 %42, ptr %1, align 4
  %43 = load ptr, ptr %20, align 8
  %44 = icmp eq ptr %43, null
  br i1 %44, label %BZ2_bzDecompressInit.exit, label %45

45:                                               ; preds = %39
  %46 = load ptr, ptr %43, align 8
  %.not.i = icmp eq ptr %46, %7
  br i1 %.not.i, label %47, label %BZ2_bzDecompressInit.exit

47:                                               ; preds = %45
  %48 = getelementptr inbounds nuw i8, ptr %43, i64 3152
  %49 = load ptr, ptr %48, align 8
  %.not26.i = icmp eq ptr %49, null
  br i1 %.not26.i, label %53, label %50

50:                                               ; preds = %47
  %51 = load ptr, ptr %15, align 8
  %52 = load ptr, ptr %16, align 8
  call void %51(ptr noundef %52, ptr noundef nonnull %49) #22
  br label %53

53:                                               ; preds = %50, %47
  %54 = getelementptr inbounds nuw i8, ptr %43, i64 3160
  %55 = load ptr, ptr %54, align 8
  %.not27.i = icmp eq ptr %55, null
  br i1 %.not27.i, label %59, label %56

56:                                               ; preds = %53
  %57 = load ptr, ptr %15, align 8
  %58 = load ptr, ptr %16, align 8
  call void %57(ptr noundef %58, ptr noundef nonnull %55) #22
  br label %59

59:                                               ; preds = %56, %53
  %60 = getelementptr inbounds nuw i8, ptr %43, i64 3168
  %61 = load ptr, ptr %60, align 8
  %.not28.i = icmp eq ptr %61, null
  br i1 %.not28.i, label %65, label %62

62:                                               ; preds = %59
  %63 = load ptr, ptr %15, align 8
  %64 = load ptr, ptr %16, align 8
  call void %63(ptr noundef %64, ptr noundef nonnull %61) #22
  br label %65

65:                                               ; preds = %62, %59
  %66 = load ptr, ptr %15, align 8
  %67 = load ptr, ptr %16, align 8
  %68 = load ptr, ptr %20, align 8
  call void %66(ptr noundef %67, ptr noundef %68) #22
  br label %BZ2_bzDecompressInit.exit

69:                                               ; preds = %19
  %70 = load i32, ptr %37, align 8
  %.not35 = icmp eq i32 %70, 0
  %71 = load ptr, ptr %20, align 8
  %72 = icmp eq ptr %71, null
  br i1 %72, label %BZ2_bzDecompressEnd.exit42, label %73

73:                                               ; preds = %69
  %74 = load ptr, ptr %71, align 8
  %.not.i37 = icmp eq ptr %74, %7
  br i1 %.not.i37, label %75, label %BZ2_bzDecompressEnd.exit42

75:                                               ; preds = %73
  %76 = getelementptr inbounds nuw i8, ptr %71, i64 3152
  %77 = load ptr, ptr %76, align 8
  %.not26.i39 = icmp eq ptr %77, null
  br i1 %.not26.i39, label %81, label %78

78:                                               ; preds = %75
  %79 = load ptr, ptr %15, align 8
  %80 = load ptr, ptr %16, align 8
  call void %79(ptr noundef %80, ptr noundef nonnull %77) #22
  br label %81

81:                                               ; preds = %78, %75
  %82 = getelementptr inbounds nuw i8, ptr %71, i64 3160
  %83 = load ptr, ptr %82, align 8
  %.not27.i40 = icmp eq ptr %83, null
  br i1 %.not27.i40, label %87, label %84

84:                                               ; preds = %81
  %85 = load ptr, ptr %15, align 8
  %86 = load ptr, ptr %16, align 8
  call void %85(ptr noundef %86, ptr noundef nonnull %83) #22
  br label %87

87:                                               ; preds = %84, %81
  %88 = getelementptr inbounds nuw i8, ptr %71, i64 3168
  %89 = load ptr, ptr %88, align 8
  %.not28.i41 = icmp eq ptr %89, null
  br i1 %.not28.i41, label %93, label %90

90:                                               ; preds = %87
  %91 = load ptr, ptr %15, align 8
  %92 = load ptr, ptr %16, align 8
  call void %91(ptr noundef %92, ptr noundef nonnull %89) #22
  br label %93

93:                                               ; preds = %90, %87
  %94 = load ptr, ptr %15, align 8
  %95 = load ptr, ptr %16, align 8
  %96 = load ptr, ptr %20, align 8
  call void %94(ptr noundef %95, ptr noundef %96) #22
  br label %BZ2_bzDecompressEnd.exit42

BZ2_bzDecompressEnd.exit42:                       ; preds = %69, %73, %93
  %. = select i1 %.not35, i32 -8, i32 -7
  br label %BZ2_bzDecompressInit.exit

97:                                               ; preds = %19
  %98 = load ptr, ptr %20, align 8
  %99 = icmp eq ptr %98, null
  br i1 %99, label %BZ2_bzDecompressInit.exit, label %100

100:                                              ; preds = %97
  %101 = load ptr, ptr %98, align 8
  %.not.i43 = icmp eq ptr %101, %7
  br i1 %.not.i43, label %102, label %BZ2_bzDecompressInit.exit

102:                                              ; preds = %100
  %103 = getelementptr inbounds nuw i8, ptr %98, i64 3152
  %104 = load ptr, ptr %103, align 8
  %.not26.i45 = icmp eq ptr %104, null
  br i1 %.not26.i45, label %108, label %105

105:                                              ; preds = %102
  %106 = load ptr, ptr %15, align 8
  %107 = load ptr, ptr %16, align 8
  call void %106(ptr noundef %107, ptr noundef nonnull %104) #22
  br label %108

108:                                              ; preds = %105, %102
  %109 = getelementptr inbounds nuw i8, ptr %98, i64 3160
  %110 = load ptr, ptr %109, align 8
  %.not27.i46 = icmp eq ptr %110, null
  br i1 %.not27.i46, label %114, label %111

111:                                              ; preds = %108
  %112 = load ptr, ptr %15, align 8
  %113 = load ptr, ptr %16, align 8
  call void %112(ptr noundef %113, ptr noundef nonnull %110) #22
  br label %114

114:                                              ; preds = %111, %108
  %115 = getelementptr inbounds nuw i8, ptr %98, i64 3168
  %116 = load ptr, ptr %115, align 8
  %.not28.i47 = icmp eq ptr %116, null
  br i1 %.not28.i47, label %120, label %117

117:                                              ; preds = %114
  %118 = load ptr, ptr %15, align 8
  %119 = load ptr, ptr %16, align 8
  call void %118(ptr noundef %119, ptr noundef nonnull %116) #22
  br label %120

120:                                              ; preds = %117, %114
  %121 = load ptr, ptr %15, align 8
  %122 = load ptr, ptr %16, align 8
  %123 = load ptr, ptr %20, align 8
  call void %121(ptr noundef %122, ptr noundef %123) #22
  br label %BZ2_bzDecompressInit.exit

BZ2_bzDecompressInit.exit:                        ; preds = %120, %100, %97, %65, %45, %39, %13, %BZ2_bzDecompressEnd.exit42, %6, %11
  %.0 = phi i32 [ -2, %11 ], [ -2, %6 ], [ %., %BZ2_bzDecompressEnd.exit42 ], [ -3, %13 ], [ 0, %39 ], [ 0, %45 ], [ 0, %65 ], [ %38, %97 ], [ %38, %100 ], [ %38, %120 ]
  ret i32 %.0
}